target datalayout = "e-m:e-p270:32:32-p271:32:32-p272:64:64-i64:64-i128:128-f80:128-n8:16:32:64-S128"
target triple = "x86_64-pc-linux-gnu"

%struct.Curl_easy = type { i32, i64, ptr, ptr, ptr, %struct.Curl_llist_element, %struct.Curl_llist_element, i32, i32, %struct.Curl_message, %struct.easy_pollset, %struct.Names, ptr, ptr, ptr, %struct.SingleRequest, %struct.UserDefined, ptr, ptr, %struct.Progress, %struct.UrlState, ptr, %struct.PureInfo, %struct.curl_tlssessioninfo }
%struct.Curl_llist_element = type { ptr, ptr, ptr }
%struct.Curl_message = type { %struct.Curl_llist_element, %struct.CURLMsg }
%struct.CURLMsg = type { i32, ptr, %union.anon }
%union.anon = type { ptr }
%struct.easy_pollset = type { [5 x i32], i32, [5 x i8] }
%struct.Names = type { ptr, i32 }
%struct.SingleRequest = type <{ i64, i64, i64, i64, i64, %struct.curltime, i32, i32, i32, i32, i64, i32, i32, %struct.curltime, i32, i32, ptr, i64, i64, ptr, ptr, i64, ptr, %union.anon.0, ptr, [2 x i8], i8, i16, [3 x i8] }>
%struct.curltime = type { i64, i32 }
%union.anon.0 = type { ptr }
%struct.UserDefined = type <{ ptr, ptr, ptr, ptr, ptr, ptr, i16, [6 x i8], i64, i64, i64, ptr, ptr, i64, i16, i16, [4 x i8], ptr, ptr, ptr, ptr, ptr, ptr, ptr, ptr, ptr, ptr, ptr, ptr, ptr, ptr, ptr, ptr, ptr, ptr, ptr, ptr, ptr, ptr, ptr, i32, i32, i32, i32, i64, i64, i64, i64, i64, i64, i64, i64, ptr, ptr, %struct.curl_mimepart, ptr, ptr, i64, i8, i8, i8, [5 x i8], %struct.ssl_config_data, %struct.ssl_config_data, ptr, i16, i8, i8, [4 x i8], %struct.ssl_general_config, i32, i32, i32, [4 x i8], ptr, ptr, i8, [7 x i8], i64, i8, i8, i8, i8, i32, ptr, ptr, ptr, i8, i8, [2 x i8], i32, [80 x ptr], [8 x ptr], i32, i32, i32, [4 x i8], ptr, ptr, ptr, ptr, ptr, i8, [3 x i8], i32, i32, [4 x i8], i64, %struct.Curl_data_priority, ptr, ptr, i64, ptr, ptr, ptr, ptr, ptr, i8, [3 x i8], i32, i8, i8, i56, [6 x i8] }>
%struct.curl_mimepart = type { ptr, ptr, i32, i32, ptr, ptr, ptr, ptr, ptr, ptr, ptr, ptr, ptr, ptr, ptr, i64, %struct.mime_state, ptr, %struct.mime_encoder_state, i64 }
%struct.mime_state = type { i32, ptr, i64 }
%struct.mime_encoder_state = type { i64, i64, i64, [256 x i8] }
%struct.ssl_config_data = type { %struct.ssl_primary_config, i64, ptr, ptr, ptr, ptr, ptr, ptr, ptr, i8 }
%struct.ssl_primary_config = type { ptr, ptr, ptr, ptr, ptr, ptr, ptr, ptr, ptr, ptr, ptr, ptr, i8, i32, i8, i8 }
%struct.ssl_general_config = type { i64, i32 }
%struct.Curl_data_priority = type { ptr, ptr, i32, i8 }
%struct.Progress = type { i64, i64, i64, i64, i64, i64, i32, i32, i64, i64, i64, i64, i64, i64, i64, i64, i64, i64, %struct.curltime, %struct.curltime, %struct.curltime, %struct.curltime, %struct.curltime, i64, %struct.curltime, i64, [6 x i64], [6 x %struct.curltime], i32, i8 }
%struct.UrlState = type { ptr, %struct.curltime, i64, i64, %struct.dynbuf, ptr, ptr, ptr, i64, ptr, i32, i32, i32, ptr, i64, [3 x %struct.tempbuf], i32, i32, ptr, i64, i32, ptr, %struct.digestdata, %struct.digestdata, %struct.auth, %struct.auth, %struct.Curl_async, ptr, %struct.curltime, %struct.Curl_tree, %struct.Curl_llist, [15 x %struct.time_node], ptr, i8, i64, ptr, i64, i64, %struct.Curl_data_priority, ptr, ptr, ptr, %struct.urlpieces, ptr, ptr, ptr, ptr, ptr, i64, %struct.dynbuf, %struct.Curl_llist, [2 x %struct.curl_header], ptr, i32, ptr, %struct.dynamically_allocated_data, i8, i8, i8, i8, i24 }
%struct.tempbuf = type { %struct.dynbuf, i32, i8 }
%struct.digestdata = type { ptr, ptr, ptr, ptr, ptr, ptr, i32, i8, i8 }
%struct.auth = type { i64, i64, i64, i8 }
%struct.Curl_async = type { ptr, ptr, ptr, ptr, i32, i32, i8 }
%struct.Curl_tree = type { ptr, ptr, ptr, ptr, %struct.curltime, ptr }
%struct.time_node = type { %struct.Curl_llist_element, %struct.curltime, i32 }
%struct.urlpieces = type { ptr, ptr, ptr, ptr, ptr, ptr, ptr, ptr }
%struct.dynbuf = type { ptr, i64, i64, i64 }
%struct.Curl_llist = type { ptr, ptr, ptr, i64 }
%struct.curl_header = type { ptr, ptr, i64, i64, i32, ptr }
%struct.dynamically_allocated_data = type { ptr, ptr, ptr, ptr, ptr, ptr, ptr, ptr, ptr, ptr, ptr, ptr, ptr, ptr }
%struct.PureInfo = type { i32, i32, i32, i64, i64, i64, i64, i64, ptr, ptr, i64, i32, [46 x i8], i32, i32, [46 x i8], i32, ptr, i32, %struct.curl_certinfo, i32, i8 }
%struct.curl_certinfo = type { i32, ptr }
%struct.curl_tlssessioninfo = type { i32, ptr }
%struct.connectdata = type { %struct.Curl_llist_element, ptr, ptr, i64, ptr, ptr, %struct.hostname, ptr, ptr, %struct.hostname, %struct.proxy_info, %struct.proxy_info, [46 x i8], ptr, ptr, ptr, ptr, ptr, %struct.curltime, %struct.curltime, %struct.curltime, [2 x i32], [2 x ptr], [2 x ptr], [2 x ptr], %struct.ssl_primary_config, %struct.ssl_primary_config, %struct.ConnectBits, ptr, ptr, %struct.curltime, i32, i32, %struct.Curl_llist, ptr, ptr, i32, i32, %struct.ntlmdata, %struct.ntlmdata, %union.anon.1, ptr, ptr, i16, i32, i32, i32, i32, i32, i16, i16, i8, i8, i8, i8, i8, i8, i8 }
%struct.hostname = type { ptr, ptr, ptr, ptr }
%struct.proxy_info = type { %struct.hostname, i32, i8, ptr, ptr }
%struct.ConnectBits = type { i32 }
%struct.ntlmdata = type { i32, [8 x i8], i32, ptr }
%union.anon.1 = type { %struct.ftp_conn }
%struct.ftp_conn = type { %struct.pingpong, ptr, ptr, ptr, ptr, ptr, ptr, ptr, i8, i64, ptr, i64, i32, i32, i32, i32, i32, i16, i8, i8, i8, i8, i8 }
%struct.pingpong = type { i64, i8, ptr, i64, i64, %struct.curltime, i64, %struct.dynbuf, %struct.dynbuf, i64, i64, ptr, ptr }
%struct.Curl_cfilter = type { ptr, ptr, ptr, ptr, i32, i8 }

@.str.7 = private unnamed_addr constant [9 x i8] c"http/1.1\00", align 1
@.str.8 = private unnamed_addr constant [3 x i8] c"h2\00", align 1
@.str.9 = private unnamed_addr constant [34 x i8] c"unsupported ALPN protocol: '%.*s'\00", align 1
@.str.10 = private unnamed_addr constant [27 x i8] c"ALPN: server accepted %.*s\00", align 1
@.str.11 = private unnamed_addr constant [56 x i8] c"ALPN: server did not agree on a protocol. Uses default.\00", align 1

; Function Attrs: nounwind uwtable
define dso_local zeroext i1 @Curl_ssl_cf_is_proxy(ptr noundef %0) #0 {
  %2 = alloca ptr, align 8
  store ptr %0, ptr %2, align 8
  %3 = load ptr, ptr %2, align 8
  %4 = getelementptr inbounds %struct.Curl_cfilter, ptr %3, i32 0, i32 0
  %5 = load ptr, ptr %4, align 8
  %6 = icmp eq ptr %5, @Curl_cft_ssl_proxy
  ret i1 %6
}

; Function Attrs: nounwind uwtable
define dso_local i32 @Curl_alpn_set_negotiated(ptr noundef %0, ptr noundef %1, ptr noundef %2, i64 noundef %3) #0 {
  %5 = alloca ptr, align 8
  %6 = alloca ptr, align 8
  %7 = alloca ptr, align 8
  %8 = alloca i64, align 8
  %9 = alloca i32, align 4
  %10 = alloca ptr, align 8
  store ptr %0, ptr %5, align 8
  store ptr %1, ptr %6, align 8
  store ptr %2, ptr %7, align 8
  store i64 %3, ptr %8, align 8
  store i32 0, ptr %9, align 4
  %11 = load ptr, ptr %5, align 8
  %12 = getelementptr inbounds %struct.Curl_cfilter, ptr %11, i32 0, i32 3
  %13 = load ptr, ptr %12, align 8
  %14 = getelementptr inbounds %struct.connectdata, ptr %13, i32 0, i32 27
  %15 = load i32, ptr %14, align 8
  %16 = lshr i32 %15, 3
  %17 = and i32 %16, 1
  %18 = icmp ne i32 %17, 0
  br i1 %18, label %19, label %27

19:                                               ; preds = %4
  %20 = load ptr, ptr %5, align 8
  %21 = call zeroext i1 @Curl_ssl_cf_is_proxy(ptr noundef %20)
  br i1 %21, label %22, label %27

22:                                               ; preds = %19
  %23 = load ptr, ptr %5, align 8
  %24 = getelementptr inbounds %struct.Curl_cfilter, ptr %23, i32 0, i32 3
  %25 = load ptr, ptr %24, align 8
  %26 = getelementptr inbounds %struct.connectdata, ptr %25, i32 0, i32 52
  br label %32

27:                                               ; preds = %19, %4
  %28 = load ptr, ptr %5, align 8
  %29 = getelementptr inbounds %struct.Curl_cfilter, ptr %28, i32 0, i32 3
  %30 = load ptr, ptr %29, align 8
  %31 = getelementptr inbounds %struct.connectdata, ptr %30, i32 0, i32 51
  br label %32

32:                                               ; preds = %27, %22
  %33 = phi ptr [ %26, %22 ], [ %31, %27 ]
  store ptr %33, ptr %10, align 8
  %34 = load ptr, ptr %7, align 8
  %35 = icmp ne ptr %34, null
  br i1 %35, label %36, label %84

36:                                               ; preds = %32
  %37 = load i64, ptr %8, align 8
  %38 = icmp ne i64 %37, 0
  br i1 %38, label %39, label %84

39:                                               ; preds = %36
  %40 = load i64, ptr %8, align 8
  %41 = icmp eq i64 %40, 8
  br i1 %41, label %42, label %48

42:                                               ; preds = %39
  %43 = load ptr, ptr %7, align 8
  %44 = call i32 @memcmp(ptr noundef @.str.7, ptr noundef %43, i64 noundef 8) #6
  %45 = icmp ne i32 %44, 0
  br i1 %45, label %48, label %46

46:                                               ; preds = %42
  %47 = load ptr, ptr %10, align 8
  store i8 2, ptr %47, align 1
  br label %64

48:                                               ; preds = %42, %39
  %49 = load i64, ptr %8, align 8
  %50 = icmp eq i64 %49, 2
  br i1 %50, label %51, label %57

51:                                               ; preds = %48
  %52 = load ptr, ptr %7, align 8
  %53 = call i32 @memcmp(ptr noundef @.str.8, ptr noundef %52, i64 noundef 2) #6
  %54 = icmp ne i32 %53, 0
  br i1 %54, label %57, label %55

55:                                               ; preds = %51
  %56 = load ptr, ptr %10, align 8
  store i8 3, ptr %56, align 1
  store i32 1, ptr %9, align 4
  br label %63

57:                                               ; preds = %51, %48
  %58 = load ptr, ptr %10, align 8
  store i8 0, ptr %58, align 1
  %59 = load ptr, ptr %6, align 8
  %60 = load i64, ptr %8, align 8
  %61 = trunc i64 %60 to i32
  %62 = load ptr, ptr %7, align 8
  call void (ptr, ptr, ...) @Curl_failf(ptr noundef %59, ptr noundef @.str.9, i32 noundef %61, ptr noundef %62)
  br label %103

63:                                               ; preds = %55
  br label %64

64:                                               ; preds = %63, %46
  br label %65

65:                                               ; preds = %64
  %66 = load ptr, ptr %6, align 8
  %67 = icmp ne ptr %66, null
  br i1 %67, label %68, label %82

68:                                               ; preds = %65
  %69 = load ptr, ptr %6, align 8
  %70 = getelementptr inbounds %struct.Curl_easy, ptr %69, i32 0, i32 16
  %71 = getelementptr inbounds %struct.UserDefined, ptr %70, i32 0, i32 122
  %72 = load i64, ptr %71, align 2
  %73 = lshr i64 %72, 28
  %74 = and i64 %73, 1
  %75 = trunc i64 %74 to i32
  %76 = icmp ne i32 %75, 0
  br i1 %76, label %77, label %82

77:                                               ; preds = %68
  %78 = load ptr, ptr %6, align 8
  %79 = load i64, ptr %8, align 8
  %80 = trunc i64 %79 to i32
  %81 = load ptr, ptr %7, align 8
  call void (ptr, ptr, ...) @Curl_infof(ptr noundef %78, ptr noundef @.str.10, i32 noundef %80, ptr noundef %81)
  br label %82

82:                                               ; preds = %77, %68, %65
  br label %83

83:                                               ; preds = %82
  br label %102

84:                                               ; preds = %36, %32
  %85 = load ptr, ptr %10, align 8
  store i8 0, ptr %85, align 1
  br label %86

86:                                               ; preds = %84
  %87 = load ptr, ptr %6, align 8
  %88 = icmp ne ptr %87, null
  br i1 %88, label %89, label %100

89:                                               ; preds = %86
  %90 = load ptr, ptr %6, align 8
  %91 = getelementptr inbounds %struct.Curl_easy, ptr %90, i32 0, i32 16
  %92 = getelementptr inbounds %struct.UserDefined, ptr %91, i32 0, i32 122
  %93 = load i64, ptr %92, align 2
  %94 = lshr i64 %93, 28
  %95 = and i64 %94, 1
  %96 = trunc i64 %95 to i32
  %97 = icmp ne i32 %96, 0
  br i1 %97, label %98, label %100

98:                                               ; preds = %89
  %99 = load ptr, ptr %6, align 8
  call void (ptr, ptr, ...) @Curl_infof(ptr noundef %99, ptr noundef @.str.11)
  br label %100

100:                                              ; preds = %98, %89, %86
  br label %101

101:                                              ; preds = %100
  br label %102

102:                                              ; preds = %101, %83
  br label %103

103:                                              ; preds = %102, %57
  %104 = load ptr, ptr %5, align 8
  %105 = call zeroext i1 @Curl_ssl_cf_is_proxy(ptr noundef %104)
  br i1 %105, label %111, label %106

106:                                              ; preds = %103
  %107 = load ptr, ptr %6, align 8
  %108 = load i32, ptr %9, align 4
  %109 = icmp ne i32 %108, 0
  %110 = select i1 %109, i32 2, i32 -1
  call void @Curl_multiuse_state(ptr noundef %107, i32 noundef %110)
  br label %111

111:                                              ; preds = %106, %103
  ret i32 0
}