; Function Attrs: nounwind uwtable
define dso_local noundef i32 @Curl_alpn_set_negotiated(ptr noundef readonly captures(none) %0, ptr noundef %1, ptr noundef %2, i64 noundef %3) local_unnamed_addr #2 {
  %5 = getelementptr inbounds nuw i8, ptr %0, i64 24
  %6 = load ptr, ptr %5, align 8
  %7 = getelementptr inbounds nuw i8, ptr %6, i64 672
  %8 = load i32, ptr %7, align 8
  %9 = and i32 %8, 8
  %.not = icmp eq i32 %9, 0
  br i1 %.not, label %13, label %10

10:                                               ; preds = %4
  %11 = load ptr, ptr %0, align 8
  %12 = icmp eq ptr %11, @Curl_cft_ssl_proxy
  br i1 %12, label %14, label %13

13:                                               ; preds = %10, %4
  br label %14

14:                                               ; preds = %10, %13
  %.sink = phi i64 [ 1148, %13 ], [ 1149, %10 ]
  %15 = getelementptr inbounds nuw i8, ptr %6, i64 %.sink
  %16 = icmp ne ptr %2, null
  %17 = icmp ne i64 %3, 0
  %or.cond = and i1 %16, %17
  br i1 %or.cond, label %18, label %30

18:                                               ; preds = %14
  switch i64 %3, label %21 [
    i64 8, label %19
    i64 2, label %20
  ]

19:                                               ; preds = %18
  %bcmp = tail call i32 @bcmp(ptr noundef nonnull dereferenceable(8) @.str.7, ptr noundef nonnull dereferenceable(8) %2, i64 8)
  %.not34 = icmp eq i32 %bcmp, 0
  br i1 %.not34, label %23, label %21

20:                                               ; preds = %18
  %bcmp35 = tail call i32 @bcmp(ptr noundef nonnull dereferenceable(2) @.str.8, ptr noundef nonnull dereferenceable(2) %2, i64 2)
  %.not36 = icmp eq i32 %bcmp35, 0
  br i1 %.not36, label %23, label %21

21:                                               ; preds = %19, %18, %20
  store i8 0, ptr %15, align 1
  %22 = trunc i64 %3 to i32
  tail call void (ptr, ptr, ...) @Curl_failf(ptr noundef %1, ptr noundef nonnull @.str.9, i32 noundef %22, ptr noundef nonnull %2) #18
  br label %36

23:                                               ; preds = %20, %19
  %storemerge = phi i8 [ 2, %19 ], [ 3, %20 ]
  %.1 = phi i32 [ 0, %19 ], [ 1, %20 ]
  store i8 %storemerge, ptr %15, align 1
  %.not37 = icmp eq ptr %1, null
  br i1 %.not37, label %36, label %24

24:                                               ; preds = %23
  %25 = getelementptr inbounds nuw i8, ptr %1, i64 2642
  %26 = load i64, ptr %25, align 2
  %27 = and i64 %26, 268435456
  %.not38 = icmp eq i64 %27, 0
  br i1 %.not38, label %36, label %28

28:                                               ; preds = %24
  %29 = trunc i64 %3 to i32
  tail call void (ptr, ptr, ...) @Curl_infof(ptr noundef nonnull %1, ptr noundef nonnull @.str.10, i32 noundef %29, ptr noundef nonnull %2) #18
  br label %36

30:                                               ; preds = %14
  store i8 0, ptr %15, align 1
  %.not32 = icmp eq ptr %1, null
  br i1 %.not32, label %36, label %31

31:                                               ; preds = %30
  %32 = getelementptr inbounds nuw i8, ptr %1, i64 2642
  %33 = load i64, ptr %32, align 2
  %34 = and i64 %33, 268435456
  %.not33 = icmp eq i64 %34, 0
  br i1 %.not33, label %36, label %35

35:                                               ; preds = %31
  tail call void (ptr, ptr, ...) @Curl_infof(ptr noundef nonnull %1, ptr noundef nonnull @.str.11) #18
  br label %36

36:                                               ; preds = %23, %24, %28, %30, %31, %35, %21
  %.0 = phi i32 [ 0, %21 ], [ %.1, %28 ], [ %.1, %24 ], [ %.1, %23 ], [ 0, %35 ], [ 0, %31 ], [ 0, %30 ]
  %37 = load ptr, ptr %0, align 8
  %38 = icmp eq ptr %37, @Curl_cft_ssl_proxy
  br i1 %38, label %41, label %39

39:                                               ; preds = %36
  %.not39 = icmp eq i32 %.0, 0
  %40 = select i1 %.not39, i32 -1, i32 2
  tail call void @Curl_multiuse_state(ptr noundef %1, i32 noundef %40) #18
  br label %41

41:                                               ; preds = %39, %36
  ret i32 0
}